; Function Attrs: mustprogress uwtable
define hidden noundef zeroext i1 @_ZNK4cvc58internal6theory11quantifiers5ieval11PatTermInfo8isActiveEv(ptr nocapture noundef nonnull readonly align 8 dereferenceable(232) %this) local_unnamed_addr #3 align 2 personality ptr @__gxx_personality_v0 {
entry:
  %d_data.i = getelementptr inbounds i8, ptr %this, i64 48
  %0 = load ptr, ptr %d_data.i, align 8
  %1 = load atomic i8, ptr @_ZGVZN4cvc58internal4expr9NodeValue4nullEvE6s_null acquire, align 8
  %guard.uninitialized.i.i = icmp eq i8 %1, 0
  br i1 %guard.uninitialized.i.i, label %init.check.i.i, label %_ZNK4cvc58internal12NodeTemplateILb0EE6isNullEv.exit, !prof !4

init.check.i.i:                                   ; preds = %entry
  %2 = tail call i32 @__cxa_guard_acquire(ptr nonnull @_ZGVZN4cvc58internal4expr9NodeValue4nullEvE6s_null) #16
  %tobool.not.i.i = icmp eq i32 %2, 0
  br i1 %tobool.not.i.i, label %_ZNK4cvc58internal12NodeTemplateILb0EE6isNullEv.exit, label %init.i.i

init.i.i:                                         ; preds = %init.check.i.i
  %call.i.i = invoke noalias noundef nonnull dereferenceable(16) ptr @_Znwm(i64 noundef 16) #17
          to label %invoke.cont.i.i unwind label %lpad.i.i

invoke.cont.i.i:                                  ; preds = %init.i.i
  store i64 1152920405095219200, ptr %call.i.i, align 8
  %d_kind.i.i.i = getelementptr inbounds i8, ptr %call.i.i, i64 8
  store i16 0, ptr %d_kind.i.i.i, align 8
  %d_nchildren.i.i.i = getelementptr inbounds i8, ptr %call.i.i, i64 12
  store i32 0, ptr %d_nchildren.i.i.i, align 4
  store ptr %call.i.i, ptr @_ZZN4cvc58internal4expr9NodeValue4nullEvE6s_null, align 8
  tail call void @__cxa_guard_release(ptr nonnull @_ZGVZN4cvc58internal4expr9NodeValue4nullEvE6s_null) #16
  br label %_ZNK4cvc58internal12NodeTemplateILb0EE6isNullEv.exit

lpad.i.i:                                         ; preds = %init.i.i
  %3 = landingpad { ptr, i32 }
          cleanup
  tail call void @__cxa_guard_abort(ptr nonnull @_ZGVZN4cvc58internal4expr9NodeValue4nullEvE6s_null) #16
  resume { ptr, i32 } %3

_ZNK4cvc58internal12NodeTemplateILb0EE6isNullEv.exit: ; preds = %entry, %init.check.i.i, %invoke.cont.i.i
  %4 = load ptr, ptr @_ZZN4cvc58internal4expr9NodeValue4nullEvE6s_null, align 8
  %cmp.i = icmp eq ptr %0, %4
  ret i1 %cmp.i
}